target datalayout = "e-m:e-p270:32:32-p271:32:32-p272:64:64-i64:64-i128:128-f80:128-n8:16:32:64-S128"
target triple = "x86_64-pc-linux-gnu"

%struct.PLpgSQL_variable = type { i32, i32, ptr, i32, i8, i8, ptr }
%struct.PLpgSQL_datum = type { i32, i32 }
%struct.PLpgSQL_recfield = type { i32, i32, ptr, i32, i32, i64, %struct.ExpandedRecordFieldInfo }
%struct.ExpandedRecordFieldInfo = type { i32, i32, i32, i32 }

@.str.2 = private unnamed_addr constant [11 x i8] c"plpgsql-18\00", align 1
@.str.4 = private unnamed_addr constant [10 x i8] c"pl_gram.y\00", align 1
@.str.116 = private unnamed_addr constant [35 x i8] c"variable \22%s\22 is declared CONSTANT\00", align 1
@__func__.check_assignable = private unnamed_addr constant [17 x i8] c"check_assignable\00", align 1
@plpgsql_Datums = external global ptr, align 8
@.str.117 = private unnamed_addr constant [23 x i8] c"unrecognized dtype: %d\00", align 1

; Function Attrs: nounwind uwtable
define internal void @check_assignable(ptr noundef %0, i32 noundef %1, ptr noundef %2) #0 {
  %4 = alloca ptr, align 8
  %5 = alloca i32, align 4
  %6 = alloca ptr, align 8
  store ptr %0, ptr %4, align 8
  store i32 %1, ptr %5, align 4
  store ptr %2, ptr %6, align 8
  %7 = load ptr, ptr %4, align 8
  %8 = getelementptr inbounds nuw %struct.PLpgSQL_datum, ptr %7, i32 0, i32 0
  %9 = load i32, ptr %8, align 4
  switch i32 %9, label %43 [
    i32 0, label %10
    i32 4, label %10
    i32 2, label %10
    i32 1, label %56
    i32 3, label %33
  ]

10:                                               ; preds = %3, %3, %3
  %11 = load ptr, ptr %4, align 8
  %12 = getelementptr inbounds nuw %struct.PLpgSQL_variable, ptr %11, i32 0, i32 4
  %13 = load i8, ptr %12, align 4, !range !3, !noundef !4
  %14 = trunc i8 %13 to i1
  br i1 %14, label %15, label %32

15:                                               ; preds = %10
  br label %16

16:                                               ; preds = %15
  br i1 true, label %17, label %19

17:                                               ; preds = %16
  %18 = call zeroext i1 @errstart_cold(i32 noundef 21, ptr noundef @.str.2) #12
  br i1 %18, label %21, label %30

19:                                               ; preds = %16
  %20 = call zeroext i1 @errstart(i32 noundef 21, ptr noundef @.str.2)
  br i1 %20, label %21, label %30

21:                                               ; preds = %19, %17
  %22 = call i32 @errcode(i32 noundef 83886210)
  %23 = load ptr, ptr %4, align 8
  %24 = getelementptr inbounds nuw %struct.PLpgSQL_variable, ptr %23, i32 0, i32 2
  %25 = load ptr, ptr %24, align 8
  %26 = call i32 (ptr, ...) @errmsg(ptr noundef @.str.116, ptr noundef %25)
  %27 = load i32, ptr %5, align 4
  %28 = load ptr, ptr %6, align 8
  %29 = call i32 @plpgsql_scanner_errposition(i32 noundef %27, ptr noundef %28)
  call void @errfinish(ptr noundef @.str.4, i32 noundef 3569, ptr noundef @__func__.check_assignable)
  br label %30

30:                                               ; preds = %21, %19, %17
  unreachable

31:                                               ; No predecessors!
  br label %32

32:                                               ; preds = %31, %10
  br label %56

33:                                               ; preds = %3
  %34 = load ptr, ptr @plpgsql_Datums, align 8
  %35 = load ptr, ptr %4, align 8
  %36 = getelementptr inbounds nuw %struct.PLpgSQL_recfield, ptr %35, i32 0, i32 3
  %37 = load i32, ptr %36, align 8
  %38 = sext i32 %37 to i64
  %39 = getelementptr inbounds ptr, ptr %34, i64 %38
  %40 = load ptr, ptr %39, align 8
  %41 = load i32, ptr %5, align 4
  %42 = load ptr, ptr %6, align 8
  call void @check_assignable(ptr noundef %40, i32 noundef %41, ptr noundef %42)
  br label %56

43:                                               ; preds = %3
  br label %44

44:                                               ; preds = %43
  br i1 true, label %45, label %47

45:                                               ; preds = %44
  %46 = call zeroext i1 @errstart_cold(i32 noundef 21, ptr noundef @.str.2) #12
  br i1 %46, label %49, label %54

47:                                               ; preds = %44
  %48 = call zeroext i1 @errstart(i32 noundef 21, ptr noundef @.str.2)
  br i1 %48, label %49, label %54

49:                                               ; preds = %47, %45
  %50 = load ptr, ptr %4, align 8
  %51 = getelementptr inbounds nuw %struct.PLpgSQL_datum, ptr %50, i32 0, i32 0
  %52 = load i32, ptr %51, align 4
  %53 = call i32 (ptr, ...) @errmsg_internal(ptr noundef @.str.117, i32 noundef %52)
  call void @errfinish(ptr noundef @.str.4, i32 noundef 3580, ptr noundef @__func__.check_assignable)
  br label %54

54:                                               ; preds = %49, %47, %45
  unreachable

55:                                               ; No predecessors!
  br label %56

56:                                               ; preds = %55, %33, %3, %32
  ret void
}