; Function Attrs: nounwind uwtable
define internal fastcc void @check_assignable(ptr noundef readonly captures(none) %0, i32 noundef %1, ptr noundef %2) unnamed_addr #0 {
  %4 = load ptr, ptr @plpgsql_Datums, align 8
  br label %tailrecurse

tailrecurse:                                      ; preds = %17, %3
  %.tr = phi ptr [ %0, %3 ], [ %22, %17 ]
  %5 = load i32, ptr %.tr, align 4
  switch i32 %5, label %23 [
    i32 0, label %6
    i32 4, label %6
    i32 2, label %6
    i32 1, label %.loopexit
    i32 3, label %17
  ]

6:                                                ; preds = %tailrecurse, %tailrecurse, %tailrecurse
  %7 = getelementptr inbounds nuw i8, ptr %.tr, i64 20
  %8 = load i8, ptr %7, align 4, !range !3, !noundef !4
  %9 = trunc nuw i8 %8 to i1
  br i1 %9, label %10, label %.loopexit

10:                                               ; preds = %6
  %11 = tail call zeroext i1 @errstart_cold(i32 noundef 21, ptr noundef nonnull @.str.2) #14
  tail call void @llvm.assume(i1 %11)
  %12 = tail call i32 @errcode(i32 noundef 83886210) #12
  %13 = getelementptr inbounds nuw i8, ptr %.tr, i64 8
  %14 = load ptr, ptr %13, align 8
  %15 = tail call i32 (ptr, ...) @errmsg(ptr noundef nonnull @.str.116, ptr noundef %14) #12
  %16 = tail call i32 @plpgsql_scanner_errposition(i32 noundef %1, ptr noundef %2) #12
  tail call void @errfinish(ptr noundef nonnull @.str.4, i32 noundef 3569, ptr noundef nonnull @__func__.check_assignable) #12
  unreachable

17:                                               ; preds = %tailrecurse
  %18 = getelementptr inbounds nuw i8, ptr %.tr, i64 16
  %19 = load i32, ptr %18, align 8
  %20 = sext i32 %19 to i64
  %21 = getelementptr inbounds ptr, ptr %4, i64 %20
  %22 = load ptr, ptr %21, align 8
  br label %tailrecurse

23:                                               ; preds = %tailrecurse
  %24 = tail call zeroext i1 @errstart_cold(i32 noundef 21, ptr noundef nonnull @.str.2) #14
  tail call void @llvm.assume(i1 %24)
  %25 = load i32, ptr %.tr, align 4
  %26 = tail call i32 (ptr, ...) @errmsg_internal(ptr noundef nonnull @.str.117, i32 noundef %25) #12
  tail call void @errfinish(ptr noundef nonnull @.str.4, i32 noundef 3580, ptr noundef nonnull @__func__.check_assignable) #12
  unreachable

.loopexit:                                        ; preds = %tailrecurse, %6
  ret void
}